ARM GAS  /tmp/ccZRMjLT.s 			page 1


   1              		.cpu cortex-m4
   2              		.eabi_attribute 27, 1
   3              		.eabi_attribute 28, 1
   4              		.eabi_attribute 20, 1
   5              		.eabi_attribute 21, 1
   6              		.eabi_attribute 23, 3
   7              		.eabi_attribute 24, 1
   8              		.eabi_attribute 25, 1
   9              		.eabi_attribute 26, 1
  10              		.eabi_attribute 30, 1
  11              		.eabi_attribute 34, 1
  12              		.eabi_attribute 18, 4
  13              		.file	"ili9341_touch.c"
  14              		.text
  15              	.Ltext0:
  16              		.cfi_sections	.debug_frame
  17              		.section	.text.ILI9341_TouchSelect,"ax",%progbits
  18              		.align	1
  19              		.arch armv7e-m
  20              		.syntax unified
  21              		.thumb
  22              		.thumb_func
  23              		.fpu fpv4-sp-d16
  25              	ILI9341_TouchSelect:
  26              	.LFB130:
  27              		.file 1 "Lib/ili9341/ili9341_touch.c"
   1:Lib/ili9341/ili9341_touch.c **** /* vim: set ai et ts=4 sw=4: */
   2:Lib/ili9341/ili9341_touch.c **** 
   3:Lib/ili9341/ili9341_touch.c **** #include "stm32f4xx_hal.h"
   4:Lib/ili9341/ili9341_touch.c **** #include "ili9341_touch.h"
   5:Lib/ili9341/ili9341_touch.c **** 
   6:Lib/ili9341/ili9341_touch.c **** #define READ_X 0xD0
   7:Lib/ili9341/ili9341_touch.c **** #define READ_Y 0x90
   8:Lib/ili9341/ili9341_touch.c **** 
   9:Lib/ili9341/ili9341_touch.c **** static void ILI9341_TouchSelect() {
  28              		.loc 1 9 35 view -0
  29              		.cfi_startproc
  30              		@ args = 0, pretend = 0, frame = 0
  31              		@ frame_needed = 0, uses_anonymous_args = 0
  32 0000 08B5     		push	{r3, lr}
  33              	.LCFI0:
  34              		.cfi_def_cfa_offset 8
  35              		.cfi_offset 3, -8
  36              		.cfi_offset 14, -4
  10:Lib/ili9341/ili9341_touch.c ****     HAL_GPIO_WritePin(ILI9341_TOUCH_CS_GPIO_Port, ILI9341_TOUCH_CS_Pin, GPIO_PIN_RESET);
  37              		.loc 1 10 5 view .LVU1
  38 0002 0022     		movs	r2, #0
  39 0004 4FF48061 		mov	r1, #1024
  40 0008 0148     		ldr	r0, .L3
  41 000a FFF7FEFF 		bl	HAL_GPIO_WritePin
  42              	.LVL0:
  11:Lib/ili9341/ili9341_touch.c **** }
  43              		.loc 1 11 1 is_stmt 0 view .LVU2
  44 000e 08BD     		pop	{r3, pc}
  45              	.L4:
  46              		.align	2
  47              	.L3:
ARM GAS  /tmp/ccZRMjLT.s 			page 2


  48 0010 00000240 		.word	1073872896
  49              		.cfi_endproc
  50              	.LFE130:
  52              		.section	.text.ILI9341_TouchUnselect,"ax",%progbits
  53              		.align	1
  54              		.global	ILI9341_TouchUnselect
  55              		.syntax unified
  56              		.thumb
  57              		.thumb_func
  58              		.fpu fpv4-sp-d16
  60              	ILI9341_TouchUnselect:
  61              	.LFB131:
  12:Lib/ili9341/ili9341_touch.c **** 
  13:Lib/ili9341/ili9341_touch.c **** void ILI9341_TouchUnselect() {
  62              		.loc 1 13 30 is_stmt 1 view -0
  63              		.cfi_startproc
  64              		@ args = 0, pretend = 0, frame = 0
  65              		@ frame_needed = 0, uses_anonymous_args = 0
  66 0000 08B5     		push	{r3, lr}
  67              	.LCFI1:
  68              		.cfi_def_cfa_offset 8
  69              		.cfi_offset 3, -8
  70              		.cfi_offset 14, -4
  14:Lib/ili9341/ili9341_touch.c ****     HAL_GPIO_WritePin(ILI9341_TOUCH_CS_GPIO_Port, ILI9341_TOUCH_CS_Pin, GPIO_PIN_SET);
  71              		.loc 1 14 5 view .LVU4
  72 0002 0122     		movs	r2, #1
  73 0004 4FF48061 		mov	r1, #1024
  74 0008 0148     		ldr	r0, .L7
  75 000a FFF7FEFF 		bl	HAL_GPIO_WritePin
  76              	.LVL1:
  15:Lib/ili9341/ili9341_touch.c **** }
  77              		.loc 1 15 1 is_stmt 0 view .LVU5
  78 000e 08BD     		pop	{r3, pc}
  79              	.L8:
  80              		.align	2
  81              	.L7:
  82 0010 00000240 		.word	1073872896
  83              		.cfi_endproc
  84              	.LFE131:
  86              		.section	.text.ILI9341_TouchPressed,"ax",%progbits
  87              		.align	1
  88              		.global	ILI9341_TouchPressed
  89              		.syntax unified
  90              		.thumb
  91              		.thumb_func
  92              		.fpu fpv4-sp-d16
  94              	ILI9341_TouchPressed:
  95              	.LFB132:
  16:Lib/ili9341/ili9341_touch.c **** 
  17:Lib/ili9341/ili9341_touch.c **** bool ILI9341_TouchPressed() {
  96              		.loc 1 17 29 is_stmt 1 view -0
  97              		.cfi_startproc
  98              		@ args = 0, pretend = 0, frame = 0
  99              		@ frame_needed = 0, uses_anonymous_args = 0
 100 0000 08B5     		push	{r3, lr}
 101              	.LCFI2:
 102              		.cfi_def_cfa_offset 8
ARM GAS  /tmp/ccZRMjLT.s 			page 3


 103              		.cfi_offset 3, -8
 104              		.cfi_offset 14, -4
  18:Lib/ili9341/ili9341_touch.c ****     return HAL_GPIO_ReadPin(ILI9341_TOUCH_IRQ_GPIO_Port, ILI9341_TOUCH_IRQ_Pin) == GPIO_PIN_RESET;
 105              		.loc 1 18 5 view .LVU7
 106              		.loc 1 18 12 is_stmt 0 view .LVU8
 107 0002 1021     		movs	r1, #16
 108 0004 0348     		ldr	r0, .L11
 109 0006 FFF7FEFF 		bl	HAL_GPIO_ReadPin
 110              	.LVL2:
  19:Lib/ili9341/ili9341_touch.c **** }
 111              		.loc 1 19 1 view .LVU9
 112 000a B0FA80F0 		clz	r0, r0
 113 000e 4009     		lsrs	r0, r0, #5
 114 0010 08BD     		pop	{r3, pc}
 115              	.L12:
 116 0012 00BF     		.align	2
 117              	.L11:
 118 0014 00040240 		.word	1073873920
 119              		.cfi_endproc
 120              	.LFE132:
 122              		.section	.text.ILI9341_TouchGetCoordinates,"ax",%progbits
 123              		.align	1
 124              		.global	ILI9341_TouchGetCoordinates
 125              		.syntax unified
 126              		.thumb
 127              		.thumb_func
 128              		.fpu fpv4-sp-d16
 130              	ILI9341_TouchGetCoordinates:
 131              	.LVL3:
 132              	.LFB133:
  20:Lib/ili9341/ili9341_touch.c **** 
  21:Lib/ili9341/ili9341_touch.c **** bool ILI9341_TouchGetCoordinates(uint16_t* x, uint16_t* y) {
 133              		.loc 1 21 60 is_stmt 1 view -0
 134              		.cfi_startproc
 135              		@ args = 0, pretend = 0, frame = 16
 136              		@ frame_needed = 0, uses_anonymous_args = 0
 137              		.loc 1 21 60 is_stmt 0 view .LVU11
 138 0000 2DE9F04F 		push	{r4, r5, r6, r7, r8, r9, r10, fp, lr}
 139              	.LCFI3:
 140              		.cfi_def_cfa_offset 36
 141              		.cfi_offset 4, -36
 142              		.cfi_offset 5, -32
 143              		.cfi_offset 6, -28
 144              		.cfi_offset 7, -24
 145              		.cfi_offset 8, -20
 146              		.cfi_offset 9, -16
 147              		.cfi_offset 10, -12
 148              		.cfi_offset 11, -8
 149              		.cfi_offset 14, -4
 150 0004 87B0     		sub	sp, sp, #28
 151              	.LCFI4:
 152              		.cfi_def_cfa_offset 64
 153 0006 8346     		mov	fp, r0
 154 0008 0391     		str	r1, [sp, #12]
  22:Lib/ili9341/ili9341_touch.c ****     static const uint8_t cmd_read_x[] = { READ_X };
 155              		.loc 1 22 5 is_stmt 1 view .LVU12
  23:Lib/ili9341/ili9341_touch.c ****     static const uint8_t cmd_read_y[] = { READ_Y };
ARM GAS  /tmp/ccZRMjLT.s 			page 4


 156              		.loc 1 23 5 view .LVU13
  24:Lib/ili9341/ili9341_touch.c ****     static const uint8_t zeroes_tx[] = { 0x00, 0x00 };
 157              		.loc 1 24 5 view .LVU14
  25:Lib/ili9341/ili9341_touch.c **** 
  26:Lib/ili9341/ili9341_touch.c ****     ILI9341_TouchSelect();
 158              		.loc 1 26 5 view .LVU15
 159 000a FFF7FEFF 		bl	ILI9341_TouchSelect
 160              	.LVL4:
  27:Lib/ili9341/ili9341_touch.c **** 
  28:Lib/ili9341/ili9341_touch.c ****     uint32_t avg_x = 0;
 161              		.loc 1 28 5 view .LVU16
  29:Lib/ili9341/ili9341_touch.c ****     uint32_t avg_y = 0;
 162              		.loc 1 29 5 view .LVU17
  30:Lib/ili9341/ili9341_touch.c ****     uint8_t nsamples = 0;
 163              		.loc 1 30 5 view .LVU18
  31:Lib/ili9341/ili9341_touch.c ****     for(uint8_t i = 0; i < 16; i++) {
 164              		.loc 1 31 5 view .LVU19
 165              	.LBB2:
 166              		.loc 1 31 9 view .LVU20
 167              		.loc 1 31 17 is_stmt 0 view .LVU21
 168 000e 0024     		movs	r4, #0
 169              	.LBE2:
  30:Lib/ili9341/ili9341_touch.c ****     uint8_t nsamples = 0;
 170              		.loc 1 30 13 view .LVU22
 171 0010 2646     		mov	r6, r4
  29:Lib/ili9341/ili9341_touch.c ****     uint32_t avg_y = 0;
 172              		.loc 1 29 14 view .LVU23
 173 0012 A146     		mov	r9, r4
  28:Lib/ili9341/ili9341_touch.c ****     uint32_t avg_y = 0;
 174              		.loc 1 28 14 view .LVU24
 175 0014 A246     		mov	r10, r4
 176              	.LVL5:
 177              	.L14:
 178              	.LBB4:
 179              		.loc 1 31 5 discriminator 1 view .LVU25
 180 0016 0F2C     		cmp	r4, #15
 181 0018 35D8     		bhi	.L16
 182              	.LBB3:
  32:Lib/ili9341/ili9341_touch.c ****         if(!ILI9341_TouchPressed())
 183              		.loc 1 32 9 is_stmt 1 view .LVU26
 184              		.loc 1 32 13 is_stmt 0 view .LVU27
 185 001a FFF7FEFF 		bl	ILI9341_TouchPressed
 186              	.LVL6:
 187              		.loc 1 32 11 view .LVU28
 188 001e 90B3     		cbz	r0, .L16
  33:Lib/ili9341/ili9341_touch.c ****             break;
  34:Lib/ili9341/ili9341_touch.c **** 
  35:Lib/ili9341/ili9341_touch.c ****         nsamples++;
 189              		.loc 1 35 9 is_stmt 1 view .LVU29
 190              		.loc 1 35 17 is_stmt 0 view .LVU30
 191 0020 0136     		adds	r6, r6, #1
 192              	.LVL7:
 193              		.loc 1 35 17 view .LVU31
 194 0022 F6B2     		uxtb	r6, r6
 195              	.LVL8:
  36:Lib/ili9341/ili9341_touch.c **** 
  37:Lib/ili9341/ili9341_touch.c ****         HAL_SPI_Transmit(&ILI9341_TOUCH_SPI_PORT, (uint8_t*)cmd_read_y, sizeof(cmd_read_y), HAL_MAX
ARM GAS  /tmp/ccZRMjLT.s 			page 5


 196              		.loc 1 37 9 is_stmt 1 view .LVU32
 197 0024 394D     		ldr	r5, .L27
 198 0026 4FF0FF33 		mov	r3, #-1
 199 002a 0122     		movs	r2, #1
 200 002c 3849     		ldr	r1, .L27+4
 201 002e 2846     		mov	r0, r5
 202 0030 FFF7FEFF 		bl	HAL_SPI_Transmit
 203              	.LVL9:
  38:Lib/ili9341/ili9341_touch.c ****         uint8_t y_raw[2];
 204              		.loc 1 38 9 view .LVU33
  39:Lib/ili9341/ili9341_touch.c ****         HAL_SPI_TransmitReceive(&ILI9341_TOUCH_SPI_PORT, (uint8_t*)zeroes_tx, y_raw, sizeof(y_raw),
 205              		.loc 1 39 9 view .LVU34
 206 0034 DFF8E880 		ldr	r8, .L27+20
 207 0038 4FF0FF37 		mov	r7, #-1
 208 003c 0097     		str	r7, [sp]
 209 003e 0223     		movs	r3, #2
 210 0040 04AA     		add	r2, sp, #16
 211 0042 4146     		mov	r1, r8
 212 0044 2846     		mov	r0, r5
 213 0046 FFF7FEFF 		bl	HAL_SPI_TransmitReceive
 214              	.LVL10:
  40:Lib/ili9341/ili9341_touch.c **** 
  41:Lib/ili9341/ili9341_touch.c ****         HAL_SPI_Transmit(&ILI9341_TOUCH_SPI_PORT, (uint8_t*)cmd_read_x, sizeof(cmd_read_x), HAL_MAX
 215              		.loc 1 41 9 view .LVU35
 216 004a 3B46     		mov	r3, r7
 217 004c 0122     		movs	r2, #1
 218 004e 3149     		ldr	r1, .L27+8
 219 0050 2846     		mov	r0, r5
 220 0052 FFF7FEFF 		bl	HAL_SPI_Transmit
 221              	.LVL11:
  42:Lib/ili9341/ili9341_touch.c ****         uint8_t x_raw[2];
 222              		.loc 1 42 9 view .LVU36
  43:Lib/ili9341/ili9341_touch.c ****         HAL_SPI_TransmitReceive(&ILI9341_TOUCH_SPI_PORT, (uint8_t*)zeroes_tx, x_raw, sizeof(x_raw),
 223              		.loc 1 43 9 view .LVU37
 224 0056 0097     		str	r7, [sp]
 225 0058 0223     		movs	r3, #2
 226 005a 05AA     		add	r2, sp, #20
 227 005c 4146     		mov	r1, r8
 228 005e 2846     		mov	r0, r5
 229 0060 FFF7FEFF 		bl	HAL_SPI_TransmitReceive
 230              	.LVL12:
  44:Lib/ili9341/ili9341_touch.c **** 
  45:Lib/ili9341/ili9341_touch.c ****         avg_x += (((uint16_t)x_raw[0]) << 8) | ((uint16_t)x_raw[1]);
 231              		.loc 1 45 9 view .LVU38
 232              		.loc 1 45 35 is_stmt 0 view .LVU39
 233 0064 9DF81420 		ldrb	r2, [sp, #20]	@ zero_extendqisi2
 234              		.loc 1 45 64 view .LVU40
 235 0068 9DF81530 		ldrb	r3, [sp, #21]	@ zero_extendqisi2
 236              		.loc 1 45 46 view .LVU41
 237 006c 43EA0223 		orr	r3, r3, r2, lsl #8
 238              		.loc 1 45 15 view .LVU42
 239 0070 9A44     		add	r10, r10, r3
 240              	.LVL13:
  46:Lib/ili9341/ili9341_touch.c ****         avg_y += (((uint16_t)y_raw[0]) << 8) | ((uint16_t)y_raw[1]);
 241              		.loc 1 46 9 is_stmt 1 view .LVU43
 242              		.loc 1 46 35 is_stmt 0 view .LVU44
 243 0072 9DF81020 		ldrb	r2, [sp, #16]	@ zero_extendqisi2
ARM GAS  /tmp/ccZRMjLT.s 			page 6


 244              		.loc 1 46 64 view .LVU45
 245 0076 9DF81130 		ldrb	r3, [sp, #17]	@ zero_extendqisi2
 246              		.loc 1 46 46 view .LVU46
 247 007a 43EA0223 		orr	r3, r3, r2, lsl #8
 248              		.loc 1 46 15 view .LVU47
 249 007e 9944     		add	r9, r9, r3
 250              	.LVL14:
 251              		.loc 1 46 15 view .LVU48
 252              	.LBE3:
  31:Lib/ili9341/ili9341_touch.c ****         if(!ILI9341_TouchPressed())
 253              		.loc 1 31 33 view .LVU49
 254 0080 0134     		adds	r4, r4, #1
 255              	.LVL15:
  31:Lib/ili9341/ili9341_touch.c ****         if(!ILI9341_TouchPressed())
 256              		.loc 1 31 33 view .LVU50
 257 0082 E4B2     		uxtb	r4, r4
 258              	.LVL16:
  31:Lib/ili9341/ili9341_touch.c ****         if(!ILI9341_TouchPressed())
 259              		.loc 1 31 33 view .LVU51
 260 0084 C7E7     		b	.L14
 261              	.L16:
  31:Lib/ili9341/ili9341_touch.c ****         if(!ILI9341_TouchPressed())
 262              		.loc 1 31 33 view .LVU52
 263              	.LBE4:
  47:Lib/ili9341/ili9341_touch.c ****     }
  48:Lib/ili9341/ili9341_touch.c **** 
  49:Lib/ili9341/ili9341_touch.c ****     ILI9341_TouchUnselect();
 264              		.loc 1 49 5 is_stmt 1 view .LVU53
 265 0086 FFF7FEFF 		bl	ILI9341_TouchUnselect
 266              	.LVL17:
  50:Lib/ili9341/ili9341_touch.c **** 
  51:Lib/ili9341/ili9341_touch.c ****     if(nsamples < 16)
 267              		.loc 1 51 5 view .LVU54
 268              		.loc 1 51 7 is_stmt 0 view .LVU55
 269 008a 0F2E     		cmp	r6, #15
 270 008c 3CD9     		bls	.L21
  52:Lib/ili9341/ili9341_touch.c ****         return false;
  53:Lib/ili9341/ili9341_touch.c **** 
  54:Lib/ili9341/ili9341_touch.c ****     uint32_t raw_x = (avg_x / 16);
 271              		.loc 1 54 5 is_stmt 1 view .LVU56
 272              		.loc 1 54 14 is_stmt 0 view .LVU57
 273 008e 4FEA1A12 		lsr	r2, r10, #4
 274              	.LVL18:
  55:Lib/ili9341/ili9341_touch.c ****     if(raw_x < ILI9341_TOUCH_MIN_RAW_X) raw_x = ILI9341_TOUCH_MIN_RAW_X;
 275              		.loc 1 55 5 is_stmt 1 view .LVU58
 276              		.loc 1 55 7 is_stmt 0 view .LVU59
 277 0092 45F6BF53 		movw	r3, #23999
 278 0096 9A45     		cmp	r10, r3
 279 0098 06D9     		bls	.L22
  56:Lib/ili9341/ili9341_touch.c ****     if(raw_x > ILI9341_TOUCH_MAX_RAW_X) raw_x = ILI9341_TOUCH_MAX_RAW_X;
 280              		.loc 1 56 5 is_stmt 1 view .LVU60
 281              		.loc 1 56 7 is_stmt 0 view .LVU61
 282 009a 47F61813 		movw	r3, #31000
 283 009e 9A42     		cmp	r2, r3
 284 00a0 04D9     		bls	.L19
 285              		.loc 1 56 47 view .LVU62
 286 00a2 47F61812 		movw	r2, #31000
ARM GAS  /tmp/ccZRMjLT.s 			page 7


 287              	.LVL19:
 288              		.loc 1 56 47 view .LVU63
 289 00a6 01E0     		b	.L19
 290              	.LVL20:
 291              	.L22:
  55:Lib/ili9341/ili9341_touch.c ****     if(raw_x < ILI9341_TOUCH_MIN_RAW_X) raw_x = ILI9341_TOUCH_MIN_RAW_X;
 292              		.loc 1 55 47 view .LVU64
 293 00a8 40F2DC52 		movw	r2, #1500
 294              	.LVL21:
 295              	.L19:
  57:Lib/ili9341/ili9341_touch.c **** 
  58:Lib/ili9341/ili9341_touch.c ****     uint32_t raw_y = (avg_y / 16);
 296              		.loc 1 58 5 is_stmt 1 view .LVU65
 297              		.loc 1 58 14 is_stmt 0 view .LVU66
 298 00ac 4FEA1913 		lsr	r3, r9, #4
 299              	.LVL22:
  59:Lib/ili9341/ili9341_touch.c ****     if(raw_y < ILI9341_TOUCH_MIN_RAW_X) raw_y = ILI9341_TOUCH_MIN_RAW_Y;
 300              		.loc 1 59 5 is_stmt 1 view .LVU67
 301              		.loc 1 59 7 is_stmt 0 view .LVU68
 302 00b0 45F6BF51 		movw	r1, #23999
 303 00b4 8945     		cmp	r9, r1
 304 00b6 06D9     		bls	.L24
  60:Lib/ili9341/ili9341_touch.c ****     if(raw_y > ILI9341_TOUCH_MAX_RAW_Y) raw_y = ILI9341_TOUCH_MAX_RAW_Y;
 305              		.loc 1 60 5 is_stmt 1 view .LVU69
 306              		.loc 1 60 7 is_stmt 0 view .LVU70
 307 00b8 47F29E51 		movw	r1, #30110
 308 00bc 8B42     		cmp	r3, r1
 309 00be 04D9     		bls	.L20
 310              		.loc 1 60 47 view .LVU71
 311 00c0 47F29E53 		movw	r3, #30110
 312              	.LVL23:
 313              		.loc 1 60 47 view .LVU72
 314 00c4 01E0     		b	.L20
 315              	.LVL24:
 316              	.L24:
  59:Lib/ili9341/ili9341_touch.c ****     if(raw_y < ILI9341_TOUCH_MIN_RAW_X) raw_y = ILI9341_TOUCH_MIN_RAW_Y;
 317              		.loc 1 59 47 view .LVU73
 318 00c6 40F6CC43 		movw	r3, #3276
 319              	.LVL25:
 320              	.L20:
  61:Lib/ili9341/ili9341_touch.c **** 
  62:Lib/ili9341/ili9341_touch.c ****     // Uncomment this line to calibrate touchscreen:
  63:Lib/ili9341/ili9341_touch.c ****     // UART_Printf("raw_x = %d, raw_y = %d\r\n", x, y);
  64:Lib/ili9341/ili9341_touch.c **** 
  65:Lib/ili9341/ili9341_touch.c ****     *x = (raw_x - ILI9341_TOUCH_MIN_RAW_X) * ILI9341_TOUCH_SCALE_X / (ILI9341_TOUCH_MAX_RAW_X - ILI
 321              		.loc 1 65 5 is_stmt 1 view .LVU74
 322              		.loc 1 65 44 is_stmt 0 view .LVU75
 323 00ca C2EB0212 		rsb	r2, r2, r2, lsl #4
 324              	.LVL26:
 325              		.loc 1 65 44 view .LVU76
 326 00ce 1201     		lsls	r2, r2, #4
 327 00d0 A2F5AF22 		sub	r2, r2, #358400
 328 00d4 A2F5C862 		sub	r2, r2, #1600
 329              		.loc 1 65 68 view .LVU77
 330 00d8 0F49     		ldr	r1, .L27+12
 331 00da A1FB0212 		umull	r1, r2, r1, r2
 332 00de 920B     		lsrs	r2, r2, #14
ARM GAS  /tmp/ccZRMjLT.s 			page 8


 333              		.loc 1 65 8 view .LVU78
 334 00e0 ABF80020 		strh	r2, [fp]	@ movhi
  66:Lib/ili9341/ili9341_touch.c ****     *y = (raw_y - ILI9341_TOUCH_MIN_RAW_Y) * ILI9341_TOUCH_SCALE_Y / (ILI9341_TOUCH_MAX_RAW_Y - ILI
 335              		.loc 1 66 5 is_stmt 1 view .LVU79
 336              		.loc 1 66 44 is_stmt 0 view .LVU80
 337 00e4 03EB8303 		add	r3, r3, r3, lsl #2
 338              	.LVL27:
 339              		.loc 1 66 44 view .LVU81
 340 00e8 9B01     		lsls	r3, r3, #6
 341 00ea A3F57F23 		sub	r3, r3, #1044480
 342 00ee A3F57063 		sub	r3, r3, #3840
 343              		.loc 1 66 68 view .LVU82
 344 00f2 5B08     		lsrs	r3, r3, #1
 345 00f4 094A     		ldr	r2, .L27+16
 346 00f6 A2FB0323 		umull	r2, r3, r2, r3
 347 00fa 9B0A     		lsrs	r3, r3, #10
 348              		.loc 1 66 8 view .LVU83
 349 00fc 039A     		ldr	r2, [sp, #12]
 350 00fe 1380     		strh	r3, [r2]	@ movhi
  67:Lib/ili9341/ili9341_touch.c **** 
  68:Lib/ili9341/ili9341_touch.c ****     return true;
 351              		.loc 1 68 5 is_stmt 1 view .LVU84
 352              		.loc 1 68 12 is_stmt 0 view .LVU85
 353 0100 0120     		movs	r0, #1
 354              	.L18:
  69:Lib/ili9341/ili9341_touch.c **** }
 355              		.loc 1 69 1 view .LVU86
 356 0102 07B0     		add	sp, sp, #28
 357              	.LCFI5:
 358              		.cfi_remember_state
 359              		.cfi_def_cfa_offset 36
 360              		@ sp needed
 361 0104 BDE8F08F 		pop	{r4, r5, r6, r7, r8, r9, r10, fp, pc}
 362              	.LVL28:
 363              	.L21:
 364              	.LCFI6:
 365              		.cfi_restore_state
  52:Lib/ili9341/ili9341_touch.c **** 
 366              		.loc 1 52 16 view .LVU87
 367 0108 0020     		movs	r0, #0
 368 010a FAE7     		b	.L18
 369              	.L28:
 370              		.align	2
 371              	.L27:
 372 010c 00000000 		.word	hspi2
 373 0110 00000000 		.word	.LANCHOR0
 374 0114 00000000 		.word	.LANCHOR2
 375 0118 27072E8E 		.word	-1909586137
 376 011c 55C78913 		.word	327796565
 377 0120 00000000 		.word	.LANCHOR1
 378              		.cfi_endproc
 379              	.LFE133:
 381              		.section	.rodata.cmd_read_x.8367,"a"
 382              		.align	2
 383              		.set	.LANCHOR2,. + 0
 386              	cmd_read_x.8367:
 387 0000 D0       		.ascii	"\320"
ARM GAS  /tmp/ccZRMjLT.s 			page 9


 388              		.section	.rodata.cmd_read_y.8368,"a"
 389              		.align	2
 390              		.set	.LANCHOR0,. + 0
 393              	cmd_read_y.8368:
 394 0000 90       		.ascii	"\220"
 395              		.section	.rodata.zeroes_tx.8369,"a"
 396              		.align	2
 397              		.set	.LANCHOR1,. + 0
 400              	zeroes_tx.8369:
 401 0000 0000     		.space	2
 402              		.text
 403              	.Letext0:
 404              		.file 2 "/usr/arm-none-eabi/include/machine/_default_types.h"
 405              		.file 3 "/usr/arm-none-eabi/include/sys/_stdint.h"
 406              		.file 4 "Drivers/CMSIS/Include/core_cm4.h"
 407              		.file 5 "Drivers/CMSIS/Device/ST/STM32F4xx/Include/system_stm32f4xx.h"
 408              		.file 6 "Drivers/CMSIS/Device/ST/STM32F4xx/Include/stm32f411xe.h"
 409              		.file 7 "Drivers/STM32F4xx_HAL_Driver/Inc/stm32f4xx_hal_def.h"
 410              		.file 8 "Drivers/STM32F4xx_HAL_Driver/Inc/stm32f4xx_hal_gpio.h"
 411              		.file 9 "Drivers/STM32F4xx_HAL_Driver/Inc/stm32f4xx_hal_dma.h"
 412              		.file 10 "Drivers/STM32F4xx_HAL_Driver/Inc/stm32f4xx_hal_spi.h"
 413              		.file 11 "Lib/ili9341/ili9341_touch.h"
ARM GAS  /tmp/ccZRMjLT.s 			page 10

